; Function Attrs: mustprogress uwtable
define internal fastcc noundef zeroext i1 @_ZN6google8protobuf12_GLOBAL__N_119CheckParseInputSizeISt17basic_string_viewIcSt11char_traitsIcEEEEbRT_PNS0_2io14ErrorCollectorE(i64 %input.0.val, ptr noundef %error_collector) unnamed_addr #4 personality ptr @__gxx_personality_v0 {
entry:
  %ref.tmp.i = alloca [6 x %"class.std::basic_string_view"], align 8
  %ref.tmp = alloca %"class.std::__cxx11::basic_string", align 8
  %ref.tmp2 = alloca %"class.absl::lts_20230802::AlphaNum", align 8
  %ref.tmp6 = alloca %"class.absl::lts_20230802::AlphaNum", align 8
  %cmp = icmp ult i64 %input.0.val, 2147483648
  br i1 %cmp, label %return, label %if.then

if.then:                                          ; preds = %entry
  %digits_.i = getelementptr inbounds i8, ptr %ref.tmp2, i64 16
  %call.i = call noundef ptr @_ZN4absl12lts_2023080216numbers_internal15FastIntToBufferElPc(i64 noundef %input.0.val, ptr noundef nonnull %digits_.i)
  %sub.ptr.lhs.cast.i = ptrtoint ptr %call.i to i64
  %sub.ptr.rhs.cast.i = ptrtoint ptr %digits_.i to i64
  %sub.ptr.sub.i = sub i64 %sub.ptr.lhs.cast.i, %sub.ptr.rhs.cast.i
  store i64 %sub.ptr.sub.i, ptr %ref.tmp2, align 8
  %_M_str.i.i = getelementptr inbounds i8, ptr %ref.tmp2, i64 8
  store ptr %digits_.i, ptr %_M_str.i.i, align 8
  %digits_.i4 = getelementptr inbounds i8, ptr %ref.tmp6, i64 16
  %call.i5 = call noundef ptr @_ZN4absl12lts_2023080216numbers_internal15FastIntToBufferEiPc(i32 noundef 2147483647, ptr noundef nonnull %digits_.i4)
  %sub.ptr.lhs.cast.i6 = ptrtoint ptr %call.i5 to i64
  %sub.ptr.rhs.cast.i7 = ptrtoint ptr %digits_.i4 to i64
  %sub.ptr.sub.i8 = sub i64 %sub.ptr.lhs.cast.i6, %sub.ptr.rhs.cast.i7
  store i64 %sub.ptr.sub.i8, ptr %ref.tmp6, align 8
  %_M_str.i.i9 = getelementptr inbounds i8, ptr %ref.tmp6, i64 8
  store ptr %digits_.i4, ptr %_M_str.i.i9, align 8
  call void @llvm.lifetime.start.p0(i64 96, ptr nonnull %ref.tmp.i)
  store i64 22, ptr %ref.tmp.i, align 8, !noalias !48
  %0 = getelementptr inbounds i8, ptr %ref.tmp.i, i64 8
  store ptr @.str.126, ptr %0, align 8, !noalias !48
  %arrayinit.element.i = getelementptr inbounds i8, ptr %ref.tmp.i, i64 16
  %retval.sroa.0.0.copyload.i1.i = load i64, ptr %ref.tmp2, align 8, !noalias !48
  %retval.sroa.2.0.copyload.i3.i = load ptr, ptr %_M_str.i.i, align 8, !noalias !48
  store i64 %retval.sroa.0.0.copyload.i1.i, ptr %arrayinit.element.i, align 8, !noalias !48
  %1 = getelementptr inbounds i8, ptr %ref.tmp.i, i64 24
  store ptr %retval.sroa.2.0.copyload.i3.i, ptr %1, align 8, !noalias !48
  %arrayinit.element2.i = getelementptr inbounds i8, ptr %ref.tmp.i, i64 32
  store i64 6, ptr %arrayinit.element2.i, align 8, !noalias !48
  %2 = getelementptr inbounds i8, ptr %ref.tmp.i, i64 40
  store ptr @.str.127, ptr %2, align 8, !noalias !48
  %arrayinit.element4.i = getelementptr inbounds i8, ptr %ref.tmp.i, i64 48
  store i64 3, ptr %arrayinit.element4.i, align 8, !noalias !48
  %3 = getelementptr inbounds i8, ptr %ref.tmp.i, i64 56
  store ptr @.str.128, ptr %3, align 8, !noalias !48
  %arrayinit.element6.i = getelementptr inbounds i8, ptr %ref.tmp.i, i64 64
  store i64 %sub.ptr.sub.i8, ptr %arrayinit.element6.i, align 8, !noalias !48
  %4 = getelementptr inbounds i8, ptr %ref.tmp.i, i64 72
  store ptr %digits_.i4, ptr %4, align 8, !noalias !48
  %arrayinit.element8.i = getelementptr inbounds i8, ptr %ref.tmp.i, i64 80
  store i64 7, ptr %arrayinit.element8.i, align 8, !noalias !48
  %5 = getelementptr inbounds i8, ptr %ref.tmp.i, i64 88
  store ptr @.str.129, ptr %5, align 8, !noalias !48
  call void @_ZN4absl12lts_2023080216strings_internal9CatPiecesB5cxx11ESt16initializer_listISt17basic_string_viewIcSt11char_traitsIcEEE(ptr nonnull sret(%"class.std::__cxx11::basic_string") align 8 %ref.tmp, ptr nonnull %ref.tmp.i, i64 6)
  call void @llvm.lifetime.end.p0(i64 96, ptr nonnull %ref.tmp.i)
  %call7 = call { i64, ptr } @_ZNKSt7__cxx1112basic_stringIcSt11char_traitsIcESaIcEEcvSt17basic_string_viewIcS2_EEv(ptr noundef nonnull align 8 dereferenceable(32) %ref.tmp) #34
  %6 = extractvalue { i64, ptr } %call7, 0
  %7 = extractvalue { i64, ptr } %call7, 1
  %vtable = load ptr, ptr %error_collector, align 8
  %vfn = getelementptr inbounds i8, ptr %vtable, i64 16
  %8 = load ptr, ptr %vfn, align 8
  invoke void %8(ptr noundef nonnull align 8 dereferenceable(8) %error_collector, i32 noundef -1, i32 noundef 0, i64 %6, ptr %7)
          to label %invoke.cont unwind label %lpad

invoke.cont:                                      ; preds = %if.then
  call void @_ZNSt7__cxx1112basic_stringIcSt11char_traitsIcESaIcEED1Ev(ptr noundef nonnull align 8 dereferenceable(32) %ref.tmp) #34
  br label %return

lpad:                                             ; preds = %if.then
  %9 = landingpad { ptr, i32 }
          cleanup
  call void @_ZNSt7__cxx1112basic_stringIcSt11char_traitsIcESaIcEED1Ev(ptr noundef nonnull align 8 dereferenceable(32) %ref.tmp) #34
  resume { ptr, i32 } %9

return:                                           ; preds = %entry, %invoke.cont
  ret i1 %cmp
}